Certificate:
    Data:
        Version: 3 (0x2)
        Serial Number: 4 (0x4)
        Signature Algorithm: sha1WithRSAEncryption
        Issuer: C=BA, ST=RS, L=Banja Luka, O=Elektrotehnicki fakultet, OU=ETF, CN=ca tijelo/emailAddress=ca@mail.com
        Validity
            Not Before: Feb 28 19:56:37 2025 GMT
            Not After : Feb 28 19:56:37 2026 GMT
        Subject: C=BA, ST=RS, O=Elektrotehnicki fakultet, OU=ETF, CN=u4/emailAddress=u4@mail.com
        Subject Public Key Info:
            Public Key Algorithm: rsaEncryption
                Public-Key: (2048 bit)
                Modulus:
                    00:8a:e9:6c:62:d2:b2:c3:4a:d2:66:ce:4b:27:a4:
                    36:74:ab:f9:df:3d:e6:43:bb:16:ac:81:9d:4c:fa:
                    44:73:88:04:4a:dd:15:30:af:e0:54:d6:2b:55:47:
                    b6:72:50:a7:b9:07:a3:18:f9:ff:2d:85:91:6f:6e:
                    5b:9d:34:c3:5a:ee:56:9e:70:7d:c3:34:f8:62:4f:
                    05:8b:6c:34:ec:0a:3a:e6:7c:64:a5:cd:22:de:af:
                    f3:44:57:b5:b2:00:7d:ed:2a:2f:ed:c7:4b:d4:22:
                    84:f7:c5:b1:48:31:7d:bb:92:37:2b:64:07:3f:e5:
                    42:55:db:db:4c:81:dc:1f:2b:7a:f5:a0:58:35:38:
                    9b:ad:ec:64:d9:10:63:7b:5d:d3:b4:99:12:4e:1b:
                    49:d2:69:6d:f3:80:54:02:93:c9:5e:c0:20:ad:6c:
                    e9:b0:89:03:95:1c:db:6a:14:70:2c:18:70:3e:4e:
                    5e:ab:62:ab:17:1f:1b:65:69:38:6d:11:56:85:13:
                    2d:58:91:80:70:2e:b5:f4:f0:b2:d2:53:eb:d2:81:
                    47:66:50:13:35:19:68:96:77:dd:5f:d1:ff:ea:dc:
                    fe:e2:00:0e:b3:14:f3:e2:76:f9:3e:65:68:72:2e:
                    f2:9b:22:10:a9:00:d8:b1:cc:9c:77:70:b6:85:c1:
                    bc:af
                Exponent: 65537 (0x10001)
        X509v3 extensions:
            X509v3 Basic Constraints: 
                CA:FALSE
            X509v3 Key Usage: 
                Digital Signature
            X509v3 Extended Key Usage: 
                TLS Web Client Authentication, TLS Web Server Authentication
            Netscape Comment: 
                OpenSSL Generated Certificate
            X509v3 Subject Key Identifier: 
                1A:85:24:60:D5:07:DE:2C:67:F3:8F:61:D4:75:93:B5:DC:A8:B2:B4
            X509v3 Authority Key Identifier: 
                AC:21:7F:20:7F:82:30:79:8F:1E:F0:E0:7F:DE:FC:66:A3:1D:2B:73
            X509v3 CRL Distribution Points: 
                Full Name:
                  URI:http://192.168.21.89/rootcrl.pem
    Signature Algorithm: sha1WithRSAEncryption
    Signature Value:
        d1:d3:83:08:ef:99:5b:9c:09:a0:69:d3:59:95:a9:cc:9b:56:
        2c:e0:4d:eb:46:89:74:ca:54:62:e5:63:9a:05:ac:45:fc:bb:
        b1:23:b5:93:0c:2f:c5:66:44:c4:0d:e9:c1:f9:8f:a6:7d:c0:
        5a:83:ed:0a:4e:2c:2f:0d:b2:00:7e:58:8e:48:cb:f2:96:5e:
        50:b2:7d:e9:05:95:af:82:cc:99:44:01:c7:53:28:b5:ea:16:
        a4:3c:a3:13:92:05:24:71:6f:44:95:42:85:05:be:da:aa:dd:
        9f:e6:7b:35:8f:79:2e:43:d8:49:85:18:4b:2b:0a:05:f8:58:
        f1:e7:49:bb:d1:46:c1:ed:c0:64:b7:c0:6e:eb:2c:c1:a0:36:
        cf:40:f4:50:21:e7:aa:9c:75:18:bd:c9:92:9d:41:38:ce:1c:
        a9:7d:64:83:f6:7f:9c:3a:40:4d:6b:51:8c:a1:90:0c:4e:3d:
        f4:7e:e1:8a:e6:f8:31:ff:6c:cb:d1:f9:68:81:14:bb:2a:28:
        2e:18:95:2c:23:23:c3:6b:c6:93:56:92:8f:a5:41:d3:4d:61:
        02:de:7a:5f:44:78:9f:13:f2:1c:10:07:e7:ed:29:79:e1:f0:
        23:c0:6c:89:81:06:91:06:c4:eb:1d:82:e4:e2:f9:d4:2c:6d:
        b9:05:84:b2
-----BEGIN CERTIFICATE-----
MIIEXDCCA0SgAwIBAgIBBDANBgkqhkiG9w0BAQUFADCBkDELMAkGA1UEBhMCQkEx
CzAJBgNVBAgTAlJTMRMwEQYDVQQHEwpCYW5qYSBMdWthMSEwHwYDVQQKExhFbGVr
dHJvdGVobmlja2kgZmFrdWx0ZXQxDDAKBgNVBAsTA0VURjESMBAGA1UEAxMJY2Eg
dGlqZWxvMRowGAYJKoZIhvcNAQkBFgtjYUBtYWlsLmNvbTAeFw0yNTAyMjgxOTU2
MzdaFw0yNjAyMjgxOTU2MzdaMHQxCzAJBgNVBAYTAkJBMQswCQYDVQQIEwJSUzEh
MB8GA1UEChMYRWxla3Ryb3RlaG5pY2tpIGZha3VsdGV0MQwwCgYDVQQLEwNFVEYx
CzAJBgNVBAMTAnU0MRowGAYJKoZIhvcNAQkBFgt1NEBtYWlsLmNvbTCCASIwDQYJ
KoZIhvcNAQEBBQADggEPADCCAQoCggEBAIrpbGLSssNK0mbOSyekNnSr+d895kO7
FqyBnUz6RHOIBErdFTCv4FTWK1VHtnJQp7kHoxj5/y2FkW9uW500w1ruVp5wfcM0
+GJPBYtsNOwKOuZ8ZKXNIt6v80RXtbIAfe0qL+3HS9QihPfFsUgxfbuSNytkBz/l
QlXb20yB3B8revWgWDU4m63sZNkQY3td07SZEk4bSdJpbfOAVAKTyV7AIK1s6bCJ
A5Uc22oUcCwYcD5OXqtiqxcfG2VpOG0RVoUTLViRgHAutfTwstJT69KBR2ZQEzUZ
aJZ33V/R/+rc/uIADrMU8+J2+T5laHIu8psiEKkA2LHMnHdwtoXBvK8CAwEAAaOB
2zCB2DAJBgNVHRMEAjAAMAsGA1UdDwQEAwIHgDAdBgNVHSUEFjAUBggrBgEFBQcD
AgYIKwYBBQUHAwEwLAYJYIZIAYb4QgENBB8WHU9wZW5TU0wgR2VuZXJhdGVkIENl
cnRpZmljYXRlMB0GA1UdDgQWBBQahSRg1QfeLGfzj2HUdZO13KiytDAfBgNVHSME
GDAWgBSsIX8gf4IweY8e8OB/3vxmox0rczAxBgNVHR8EKjAoMCagJKAihiBodHRw
Oi8vMTkyLjE2OC4yMS44OS9yb290Y3JsLnBlbTANBgkqhkiG9w0BAQUFAAOCAQEA
0dODCO+ZW5wJoGnTWZWpzJtWLOBN60aJdMpUYuVjmgWsRfy7sSO1kwwvxWZExA3p
wfmPpn3AWoPtCk4sLw2yAH5YjkjL8pZeULJ96QWVr4LMmUQBx1MoteoWpDyjE5IF
JHFvRJVChQW+2qrdn+Z7NY95LkPYSYUYSysKBfhY8edJu9FGwe3AZLfAbusswaA2
z0D0UCHnqpx1GL3Jkp1BOM4cqX1kg/Z/nDpATWtRjKGQDE499H7hiub4Mf9sy9H5
aIEUuyooLhiVLCMjw2vGk1aSj6VB001hAt56X0R4nxPyHBAH5+0peeHwI8BsiYEG
kQbE6x2C5OL51CxtuQWEsg==
-----END CERTIFICATE-----
