Certificate:
    Data:
        Version: 3 (0x2)
        Serial Number: 8 (0x8)
        Signature Algorithm: sha1WithRSAEncryption
        Issuer: C=BA, ST=RS, L=Banja Luka, O=Elektrotehnicki fakultet, OU=ETF, CN=ca tijelo/emailAddress=ca@mail.com
        Validity
            Not Before: Feb 28 19:59:16 2025 GMT
            Not After : Feb 28 19:59:16 2026 GMT
        Subject: C=BA, ST=RS, O=Elektrotehnicki fakultet, OU=ETF, CN=u8/emailAddress=u8@mail.com
        Subject Public Key Info:
            Public Key Algorithm: rsaEncryption
                Public-Key: (2048 bit)
                Modulus:
                    00:b4:58:6a:73:a7:1b:1c:67:ef:dd:83:3a:1b:a4:
                    8e:45:8f:94:13:62:13:6d:a8:d3:1e:d6:86:3e:aa:
                    9e:6a:9b:46:91:73:05:f9:7c:f9:d6:f1:fd:cd:0d:
                    3c:2a:ca:f4:dc:8f:fc:a5:06:97:92:da:db:83:f5:
                    12:3f:e4:68:f7:eb:51:a1:54:99:75:6a:72:54:42:
                    fa:18:80:e3:05:46:00:f5:80:69:e3:ec:93:50:24:
                    53:8f:bf:fc:34:e3:c8:9c:fb:f9:e4:6d:54:e6:fc:
                    fe:da:c3:d3:c5:4e:d9:d1:46:ef:94:8a:8c:c5:f0:
                    4d:6c:a2:1d:12:11:79:4d:e5:28:ac:c1:71:da:16:
                    94:43:95:f9:9c:28:33:a1:31:ea:e1:c6:d0:74:90:
                    b4:47:9a:b4:db:21:3c:e2:1e:24:35:88:2a:84:75:
                    05:c7:81:26:04:c1:f9:b8:74:27:ca:d9:35:8a:ec:
                    47:30:7f:a5:a3:e0:63:21:be:bc:40:74:73:de:c9:
                    2f:af:9a:6f:29:e3:c8:c0:08:d7:08:57:44:c7:9a:
                    a3:7d:31:00:08:aa:4a:9b:af:1e:a2:61:a7:2f:11:
                    84:b6:40:12:e4:f6:d9:ae:e5:71:24:e7:8a:1c:11:
                    9a:14:7a:a0:36:12:69:c5:61:ac:63:10:80:47:26:
                    fa:29
                Exponent: 65537 (0x10001)
        X509v3 extensions:
            X509v3 Basic Constraints: 
                CA:FALSE
            X509v3 Key Usage: 
                Digital Signature
            X509v3 Extended Key Usage: 
                TLS Web Client Authentication, TLS Web Server Authentication
            Netscape Comment: 
                OpenSSL Generated Certificate
            X509v3 Subject Key Identifier: 
                29:7F:47:28:5E:5A:FF:F5:4C:78:AF:93:8E:BD:23:6B:4E:9F:FE:61
            X509v3 Authority Key Identifier: 
                AC:21:7F:20:7F:82:30:79:8F:1E:F0:E0:7F:DE:FC:66:A3:1D:2B:73
            X509v3 CRL Distribution Points: 
                Full Name:
                  URI:http://192.168.21.89/rootcrl.pem
    Signature Algorithm: sha1WithRSAEncryption
    Signature Value:
        0f:5c:38:80:3d:13:7f:2b:d1:0d:e0:0a:54:f9:08:ea:6a:4e:
        20:8a:4c:83:31:9d:ed:1c:2c:61:b5:e8:be:db:3a:72:63:99:
        dc:a3:15:cb:e2:1b:bb:07:31:f6:e3:56:87:c1:03:95:da:2d:
        f1:d8:e4:06:6c:3e:43:f9:90:fb:19:b4:dd:07:f7:ee:85:da:
        fc:d8:6a:cf:e4:94:11:4a:94:03:9f:29:df:05:cc:84:7c:32:
        58:bc:91:03:9d:51:c6:d9:69:a7:66:59:cd:1b:03:83:3b:1f:
        fc:0e:b6:1d:cb:1f:a1:e9:61:95:c6:d8:ee:0f:b3:5c:57:10:
        b6:c8:6c:a1:3d:1b:50:99:89:5d:78:87:48:a1:9a:bb:ee:a3:
        d6:2e:8f:9e:20:c8:de:c8:69:fa:2d:62:52:fa:21:7a:45:f9:
        45:e5:37:6d:42:89:f8:17:76:1b:e2:24:4a:2d:61:99:ef:7c:
        32:a1:4d:20:93:6c:e3:35:fb:bf:54:27:c2:6d:a7:c7:d1:eb:
        6f:a6:a9:ec:5e:e4:c1:a4:d8:15:6d:8f:6d:8b:29:39:7b:d6:
        d6:06:f9:98:b7:89:54:b3:b9:8d:93:ba:5f:cb:bb:65:da:ff:
        9b:5e:61:5b:6f:26:1e:07:3c:f3:37:98:93:b1:e4:85:f2:64:
        d7:06:c6:05
-----BEGIN CERTIFICATE-----
MIIEXDCCA0SgAwIBAgIBCDANBgkqhkiG9w0BAQUFADCBkDELMAkGA1UEBhMCQkEx
CzAJBgNVBAgTAlJTMRMwEQYDVQQHEwpCYW5qYSBMdWthMSEwHwYDVQQKExhFbGVr
dHJvdGVobmlja2kgZmFrdWx0ZXQxDDAKBgNVBAsTA0VURjESMBAGA1UEAxMJY2Eg
dGlqZWxvMRowGAYJKoZIhvcNAQkBFgtjYUBtYWlsLmNvbTAeFw0yNTAyMjgxOTU5
MTZaFw0yNjAyMjgxOTU5MTZaMHQxCzAJBgNVBAYTAkJBMQswCQYDVQQIEwJSUzEh
MB8GA1UEChMYRWxla3Ryb3RlaG5pY2tpIGZha3VsdGV0MQwwCgYDVQQLEwNFVEYx
CzAJBgNVBAMTAnU4MRowGAYJKoZIhvcNAQkBFgt1OEBtYWlsLmNvbTCCASIwDQYJ
KoZIhvcNAQEBBQADggEPADCCAQoCggEBALRYanOnGxxn792DOhukjkWPlBNiE22o
0x7Whj6qnmqbRpFzBfl8+dbx/c0NPCrK9NyP/KUGl5La24P1Ej/kaPfrUaFUmXVq
clRC+hiA4wVGAPWAaePsk1AkU4+//DTjyJz7+eRtVOb8/trD08VO2dFG75SKjMXw
TWyiHRIReU3lKKzBcdoWlEOV+ZwoM6Ex6uHG0HSQtEeatNshPOIeJDWIKoR1BceB
JgTB+bh0J8rZNYrsRzB/paPgYyG+vEB0c97JL6+abynjyMAI1whXRMeao30xAAiq
SpuvHqJhpy8RhLZAEuT22a7lcSTnihwRmhR6oDYSacVhrGMQgEcm+ikCAwEAAaOB
2zCB2DAJBgNVHRMEAjAAMAsGA1UdDwQEAwIHgDAdBgNVHSUEFjAUBggrBgEFBQcD
AgYIKwYBBQUHAwEwLAYJYIZIAYb4QgENBB8WHU9wZW5TU0wgR2VuZXJhdGVkIENl
cnRpZmljYXRlMB0GA1UdDgQWBBQpf0coXlr/9Ux4r5OOvSNrTp/+YTAfBgNVHSME
GDAWgBSsIX8gf4IweY8e8OB/3vxmox0rczAxBgNVHR8EKjAoMCagJKAihiBodHRw
Oi8vMTkyLjE2OC4yMS44OS9yb290Y3JsLnBlbTANBgkqhkiG9w0BAQUFAAOCAQEA
D1w4gD0TfyvRDeAKVPkI6mpOIIpMgzGd7RwsYbXovts6cmOZ3KMVy+Ibuwcx9uNW
h8EDldot8djkBmw+Q/mQ+xm03Qf37oXa/Nhqz+SUEUqUA58p3wXMhHwyWLyRA51R
xtlpp2ZZzRsDgzsf/A62HcsfoelhlcbY7g+zXFcQtshsoT0bUJmJXXiHSKGau+6j
1i6PniDI3shp+i1iUvohekX5ReU3bUKJ+Bd2G+IkSi1hme98MqFNIJNs4zX7v1Qn
wm2nx9Hrb6ap7F7kwaTYFW2PbYspOXvW1gb5mLeJVLO5jZO6X8u7Zdr/m15hW28m
Hgc88zeYk7HkhfJk1wbGBQ==
-----END CERTIFICATE-----
